target datalayout = "e-m:e-p270:32:32-p271:32:32-p272:64:64-i64:64-i128:128-f80:128-n8:16:32:64-S128"
target triple = "x86_64-pc-linux-gnu"

%class.ProjNode = type <{ %class.Node.base, i32, i8, [7 x i8] }>
%class.Node.base = type <{ ptr, ptr, ptr, i32, i32, i32, i32, i32, i32, i32 }>
%class.Node = type <{ ptr, ptr, ptr, i32, i32, i32, i32, i32, i32, i32, [4 x i8] }>

@_ZN4Type3TOPE = external global ptr, align 8

; Function Attrs: mustprogress nounwind uwtable
define linkonce_odr hidden noundef zeroext i1 @_ZNK4Node8is_StartEv(ptr noundef nonnull align 8 dereferenceable(52) %0) #1 comdat align 2 {
  %2 = alloca ptr, align 8
  store ptr %0, ptr %2, align 8
  %3 = load ptr, ptr %2, align 8
  %4 = getelementptr inbounds %class.Node, ptr %3, i32 0, i32 8
  %5 = load i32, ptr %4, align 4
  %6 = and i32 %5, 15
  %7 = icmp eq i32 %6, 9
  ret i1 %7
}

; Function Attrs: mustprogress nounwind uwtable
define linkonce_odr hidden noundef zeroext i1 @_ZNK4Node7is_MachEv(ptr noundef nonnull align 8 dereferenceable(52) %0) #1 comdat align 2 {
  %2 = alloca ptr, align 8
  store ptr %0, ptr %2, align 8
  %3 = load ptr, ptr %2, align 8
  %4 = getelementptr inbounds %class.Node, ptr %3, i32 0, i32 8
  %5 = load i32, ptr %4, align 4
  %6 = and i32 %5, 3
  %7 = icmp eq i32 %6, 2
  ret i1 %7
}

; Function Attrs: mustprogress nounwind uwtable
define linkonce_odr hidden noundef ptr @_ZNK4Node2inEj(ptr noundef nonnull align 8 dereferenceable(52) %0, i32 noundef %1) #1 comdat align 2 {
  %3 = alloca ptr, align 8
  %4 = alloca i32, align 4
  store ptr %0, ptr %3, align 8
  store i32 %1, ptr %4, align 4
  %5 = load ptr, ptr %3, align 8
  %6 = getelementptr inbounds %class.Node, ptr %5, i32 0, i32 1
  %7 = load ptr, ptr %6, align 8
  %8 = load i32, ptr %4, align 4
  %9 = zext i32 %8 to i64
  %10 = getelementptr inbounds ptr, ptr %7, i64 %9
  %11 = load ptr, ptr %10, align 8
  ret ptr %11
}

; Function Attrs: mustprogress nounwind uwtable
define hidden void @_ZNK8ProjNode9check_conEv(ptr noundef nonnull align 8 dereferenceable(57) %0) #1 align 2 {
  %2 = alloca ptr, align 8
  %3 = alloca ptr, align 8
  %4 = alloca ptr, align 8
  store ptr %0, ptr %2, align 8
  %5 = load ptr, ptr %2, align 8
  %6 = call noundef ptr @_ZNK4Node2inEj(ptr noundef nonnull align 8 dereferenceable(52) %5, i32 noundef 0)
  store ptr %6, ptr %3, align 8
  %7 = load ptr, ptr %3, align 8
  %8 = icmp eq ptr %7, null
  br i1 %8, label %9, label %10

9:                                                ; preds = %1
  br label %33

10:                                               ; preds = %1
  %11 = load ptr, ptr %3, align 8
  %12 = call noundef zeroext i1 @_ZNK4Node7is_MachEv(ptr noundef nonnull align 8 dereferenceable(52) %11)
  br i1 %12, label %13, label %14

13:                                               ; preds = %10
  br label %33

14:                                               ; preds = %10
  %15 = load ptr, ptr %3, align 8
  %16 = call noundef zeroext i1 @_ZNK4Node8is_StartEv(ptr noundef nonnull align 8 dereferenceable(52) %15)
  br i1 %16, label %17, label %18

17:                                               ; preds = %14
  br label %33

18:                                               ; preds = %14
  %19 = getelementptr inbounds %class.ProjNode, ptr %5, i32 0, i32 1
  %20 = load i32, ptr %19, align 4
  %21 = icmp eq i32 %20, -2
  br i1 %21, label %22, label %23

22:                                               ; preds = %18
  br label %33

23:                                               ; preds = %18
  %24 = load ptr, ptr %3, align 8
  %25 = load ptr, ptr %24, align 8
  %26 = getelementptr inbounds ptr, ptr %25, i64 5
  %27 = load ptr, ptr %26, align 8
  %28 = call noundef ptr %27(ptr noundef nonnull align 8 dereferenceable(52) %24)
  store ptr %28, ptr %4, align 8
  %29 = load ptr, ptr %4, align 8
  %30 = load ptr, ptr @_ZN4Type3TOPE, align 8
  %31 = icmp eq ptr %29, %30
  br i1 %31, label %32, label %33

32:                                               ; preds = %23
  br label %33

33:                                               ; preds = %32, %23, %22, %17, %13, %9
  ret void
}