; Function Attrs: mustprogress nounwind uwtable
define hidden void @_ZNK8ProjNode9check_conEv(ptr nocapture noundef nonnull readonly align 8 dereferenceable(57) %0) local_unnamed_addr #1 align 2 {
  %2 = getelementptr inbounds i8, ptr %0, i64 8
  %3 = load ptr, ptr %2, align 8
  %4 = load ptr, ptr %3, align 8
  %5 = icmp eq ptr %4, null
  br i1 %5, label %22, label %6

6:                                                ; preds = %1
  %7 = getelementptr inbounds i8, ptr %4, i64 44
  %8 = load i32, ptr %7, align 4
  %9 = and i32 %8, 3
  %10 = icmp eq i32 %9, 2
  br i1 %10, label %22, label %11

11:                                               ; preds = %6
  %12 = and i32 %8, 15
  %13 = icmp eq i32 %12, 9
  %14 = getelementptr inbounds i8, ptr %0, i64 52
  %15 = load i32, ptr %14, align 4
  %16 = icmp eq i32 %15, -2
  %or.cond = select i1 %13, i1 true, i1 %16
  br i1 %or.cond, label %22, label %17

17:                                               ; preds = %11
  %18 = load ptr, ptr %4, align 8
  %19 = getelementptr inbounds i8, ptr %18, i64 40
  %20 = load ptr, ptr %19, align 8
  %21 = tail call noundef ptr %20(ptr noundef nonnull align 8 dereferenceable(52) %4) #6
  br label %22

22:                                               ; preds = %17, %11, %6, %1
  ret void
}